target datalayout = "e-m:e-p270:32:32-p271:32:32-p272:64:64-i64:64-i128:128-f80:128-n8:16:32:64-S128"
target triple = "x86_64-pc-linux-gnu"

%struct.H5FD_sec2_t = type { %struct.H5FD_t, i32, i64, i64, i8, [1024 x i8], i64, i64, i8 }
%struct.H5FD_t = type { i64, ptr, i64, i32, i64, i64, i64, i64, i64, i8 }

@.str.4 = private unnamed_addr constant [102 x i8] c"generated/home/dtcxzyw/WorkSpace/Projects/compilers/llvm-opt-benchmark/bench/hdf5/hdf5/src/H5FDsec2.c\00", align 1
@.str.12 = private unnamed_addr constant [37 x i8] c"%s, errno = %d, error message = '%s'\00", align 1
@H5E_VFL_g = external global i64, align 8
@__func__.H5FD__sec2_lock = private unnamed_addr constant [16 x i8] c"H5FD__sec2_lock\00", align 1
@H5E_CANTLOCKFILE_g = external global i64, align 8
@.str.28 = private unnamed_addr constant [20 x i8] c"unable to lock file\00", align 1

; Function Attrs: nounwind uwtable
define internal i32 @H5FD__sec2_lock(ptr noundef %0, i1 noundef zeroext %1) #0 {
  %3 = alloca ptr, align 8
  %4 = alloca i8, align 1
  %5 = alloca ptr, align 8
  %6 = alloca i32, align 4
  %7 = alloca i32, align 4
  %8 = alloca i8, align 1
  %9 = alloca i32, align 4
  store ptr %0, ptr %3, align 8
  %10 = zext i1 %1 to i8
  store i8 %10, ptr %4, align 1
  %11 = load ptr, ptr %3, align 8
  store ptr %11, ptr %5, align 8
  store i32 0, ptr %7, align 4
  store i8 0, ptr %8, align 1
  %12 = load i8, ptr %4, align 1
  %13 = trunc i8 %12 to i1
  %14 = select i1 %13, i32 2, i32 1
  store i32 %14, ptr %6, align 4
  %15 = load ptr, ptr %5, align 8
  %16 = getelementptr inbounds %struct.H5FD_sec2_t, ptr %15, i32 0, i32 1
  %17 = load i32, ptr %16, align 8
  %18 = load i32, ptr %6, align 4
  %19 = or i32 %18, 4
  %20 = call i32 @flock(i32 noundef %17, i32 noundef %19) #6
  %21 = icmp slt i32 %20, 0
  br i1 %21, label %22, label %54

22:                                               ; preds = %2
  %23 = load ptr, ptr %5, align 8
  %24 = getelementptr inbounds %struct.H5FD_sec2_t, ptr %23, i32 0, i32 4
  %25 = load i8, ptr %24, align 8
  %26 = trunc i8 %25 to i1
  br i1 %26, label %27, label %33

27:                                               ; preds = %22
  %28 = call ptr @__errno_location() #8
  %29 = load i32, ptr %28, align 4
  %30 = icmp eq i32 38, %29
  br i1 %30, label %31, label %33

31:                                               ; preds = %27
  %32 = call ptr @__errno_location() #8
  store i32 0, ptr %32, align 4
  br label %53

33:                                               ; preds = %27, %22
  %34 = call ptr @__errno_location() #8
  %35 = load i32, ptr %34, align 4
  store i32 %35, ptr %9, align 4
  br label %36

36:                                               ; preds = %33
  br label %37

37:                                               ; preds = %36
  br label %38

38:                                               ; preds = %37
  %39 = load i64, ptr @H5E_VFL_g, align 8
  %40 = load i64, ptr @H5E_CANTLOCKFILE_g, align 8
  %41 = load i32, ptr %9, align 4
  %42 = load i32, ptr %9, align 4
  %43 = call ptr @strerror(i32 noundef %42) #6
  %44 = call i32 (ptr, ptr, i32, i64, i64, ptr, ...) @H5E_printf_stack(ptr noundef @.str.4, ptr noundef @__func__.H5FD__sec2_lock, i32 noundef 954, i64 noundef %39, i64 noundef %40, ptr noundef @.str.12, ptr noundef @.str.28, i32 noundef %41, ptr noundef %43)
  br label %45

45:                                               ; preds = %38
  store i8 1, ptr %8, align 1
  %46 = load i8, ptr %8, align 1
  %47 = trunc i8 %46 to i1
  %48 = zext i1 %47 to i8
  store i8 %48, ptr %8, align 1
  br label %49

49:                                               ; preds = %45
  br label %50

50:                                               ; preds = %49
  store i32 -1, ptr %7, align 4
  br label %55

51:                                               ; No predecessors!
  br label %52

52:                                               ; preds = %51
  br label %53

53:                                               ; preds = %52, %31
  br label %54

54:                                               ; preds = %53, %2
  br label %55

55:                                               ; preds = %54, %50
  %56 = load i32, ptr %7, align 4
  ret i32 %56
}