; Function Attrs: nounwind uwtable
define internal range(i32 -1, 1) i32 @H5FD__sec2_lock(ptr nocapture noundef readonly %0, i1 noundef zeroext %1) #0 {
  %3 = getelementptr inbounds i8, ptr %0, i64 80
  %4 = load i32, ptr %3, align 8
  %5 = select i1 %1, i32 6, i32 5
  %6 = tail call i32 @flock(i32 noundef %4, i32 noundef %5) #15
  %7 = icmp slt i32 %6, 0
  br i1 %7, label %8, label %22

8:                                                ; preds = %2
  %9 = getelementptr inbounds i8, ptr %0, i64 104
  %10 = load i8, ptr %9, align 8
  %11 = trunc i8 %10 to i1
  %12 = tail call ptr @__errno_location() #17
  br i1 %11, label %13, label %._crit_edge

13:                                               ; preds = %8
  %14 = load i32, ptr %12, align 4
  %15 = icmp eq i32 %14, 38
  br i1 %15, label %16, label %._crit_edge

16:                                               ; preds = %13
  store i32 0, ptr %12, align 4
  br label %22

._crit_edge:                                      ; preds = %8, %13
  %17 = load i32, ptr %12, align 4
  %18 = load i64, ptr @H5E_VFL_g, align 8
  %19 = load i64, ptr @H5E_CANTLOCKFILE_g, align 8
  %20 = tail call ptr @strerror(i32 noundef %17) #15
  %21 = tail call i32 (ptr, ptr, i32, i64, i64, ptr, ...) @H5E_printf_stack(ptr noundef nonnull @.str.4, ptr noundef nonnull @__func__.H5FD__sec2_lock, i32 noundef 954, i64 noundef %18, i64 noundef %19, ptr noundef nonnull @.str.12, ptr noundef nonnull @.str.28, i32 noundef %17, ptr noundef %20) #15
  br label %22

22:                                               ; preds = %2, %16, %._crit_edge
  %.0 = phi i32 [ 0, %16 ], [ -1, %._crit_edge ], [ 0, %2 ]
  ret i32 %.0
}